target datalayout = "e-m:e-p270:32:32-p271:32:32-p272:64:64-i64:64-i128:128-f80:128-n8:16:32:64-S128"
target triple = "x86_64-pc-linux-gnu"

%struct._object = type { %union.anon, ptr }
%union.anon = type { i64 }

@PyCurses_API = internal global ptr null, align 8
@_Py_NoneStruct = external global %struct._object, align 8

; Function Attrs: nounwind uwtable
define internal ptr @_curses_panel_update_panels_impl(ptr noundef %0) #0 {
  %2 = alloca ptr, align 8
  %3 = alloca ptr, align 8
  store ptr %0, ptr %3, align 8, !tbaa !3
  %4 = load ptr, ptr @PyCurses_API, align 8, !tbaa !8
  %5 = getelementptr ptr, ptr %4, i64 2
  %6 = load ptr, ptr %5, align 8, !tbaa !8
  %7 = call i32 %6()
  %8 = icmp ne i32 %7, 0
  br i1 %8, label %10, label %9

9:                                                ; preds = %1
  store ptr null, ptr %2, align 8
  br label %11

10:                                               ; preds = %1
  call void @update_panels()
  store ptr @_Py_NoneStruct, ptr %2, align 8
  br label %11

11:                                               ; preds = %10, %9
  %12 = load ptr, ptr %2, align 8
  ret ptr %12
}

; Function Attrs: nounwind uwtable
define internal ptr @_curses_panel_update_panels(ptr noundef %0, ptr noundef %1) #0 {
  %3 = alloca ptr, align 8
  %4 = alloca ptr, align 8
  store ptr %0, ptr %3, align 8, !tbaa !3
  store ptr %1, ptr %4, align 8, !tbaa !3
  %5 = load ptr, ptr %3, align 8, !tbaa !3
  %6 = call ptr @_curses_panel_update_panels_impl(ptr noundef %5)
  ret ptr %6
}