; Function Attrs: nounwind uwtable
define internal noundef ptr @_curses_panel_update_panels(ptr readnone captures(none) %0, ptr readnone captures(none) %1) #0 {
  %3 = load ptr, ptr @PyCurses_API, align 8, !tbaa !16
  %4 = getelementptr i8, ptr %3, i64 16
  %5 = load ptr, ptr %4, align 8, !tbaa !16
  %6 = tail call i32 %5() #4
  %.not.i = icmp eq i32 %6, 0
  br i1 %.not.i, label %_curses_panel_update_panels_impl.exit, label %7

7:                                                ; preds = %2
  tail call void @update_panels() #4
  br label %_curses_panel_update_panels_impl.exit

_curses_panel_update_panels_impl.exit:            ; preds = %2, %7
  %.0.i = phi ptr [ @_Py_NoneStruct, %7 ], [ null, %2 ]
  ret ptr %.0.i
}